target datalayout = "e-m:e-p270:32:32-p271:32:32-p272:64:64-i64:64-i128:128-f80:128-n8:16:32:64-S128"
target triple = "x86_64-unknown-linux-gnu"

%"class.re2::Regexp" = type { i8, i8, i16, i16, i16, %union.anon, ptr, %union.anon.0 }
%union.anon = type { ptr }
%union.anon.0 = type { %struct.anon.1 }
%struct.anon.1 = type { i32, ptr }

; Function Attrs: mustprogress nounwind uwtable
define linkonce_odr noundef i32 @_ZN3re26Regexp11parse_flagsEv(ptr noundef nonnull align 8 dereferenceable(40) %this) #0 comdat align 2 {
entry:
  %this.addr = alloca ptr, align 8
  store ptr %this, ptr %this.addr, align 8
  %this1 = load ptr, ptr %this.addr, align 8
  %parse_flags_ = getelementptr inbounds %"class.re2::Regexp", ptr %this1, i32 0, i32 2
  %0 = load i16, ptr %parse_flags_, align 2
  %conv = zext i16 %0 to i32
  ret i32 %conv
}

; Function Attrs: mustprogress nounwind uwtable
define linkonce_odr noundef ptr @_ZN3re26Regexp3subEv(ptr noundef nonnull align 8 dereferenceable(40) %this) #0 comdat align 2 {
entry:
  %retval = alloca ptr, align 8
  %this.addr = alloca ptr, align 8
  store ptr %this, ptr %this.addr, align 8
  %this1 = load ptr, ptr %this.addr, align 8
  %nsub_ = getelementptr inbounds %"class.re2::Regexp", ptr %this1, i32 0, i32 4
  %0 = load i16, ptr %nsub_, align 2
  %conv = zext i16 %0 to i32
  %cmp = icmp sle i32 %conv, 1
  br i1 %cmp, label %if.then, label %if.else

if.then:                                          ; preds = %entry
  %1 = getelementptr inbounds %"class.re2::Regexp", ptr %this1, i32 0, i32 5
  store ptr %1, ptr %retval, align 8
  br label %return

if.else:                                          ; preds = %entry
  %2 = getelementptr inbounds %"class.re2::Regexp", ptr %this1, i32 0, i32 5
  %3 = load ptr, ptr %2, align 8
  store ptr %3, ptr %retval, align 8
  br label %return

return:                                           ; preds = %if.else, %if.then
  %4 = load ptr, ptr %retval, align 8
  ret ptr %4
}

; Function Attrs: mustprogress nounwind uwtable
define linkonce_odr noundef i32 @_ZN3re26Regexp4nsubEv(ptr noundef nonnull align 8 dereferenceable(40) %this) #0 comdat align 2 {
entry:
  %this.addr = alloca ptr, align 8
  store ptr %this, ptr %this.addr, align 8
  %this1 = load ptr, ptr %this.addr, align 8
  %nsub_ = getelementptr inbounds %"class.re2::Regexp", ptr %this1, i32 0, i32 4
  %0 = load i16, ptr %nsub_, align 2
  %conv = zext i16 %0 to i32
  ret i32 %conv
}

; Function Attrs: mustprogress nounwind uwtable
define linkonce_odr noundef i32 @_ZN3re26Regexp2opEv(ptr noundef nonnull align 8 dereferenceable(40) %this) #0 comdat align 2 {
entry:
  %this.addr = alloca ptr, align 8
  store ptr %this, ptr %this.addr, align 8
  %this1 = load ptr, ptr %this.addr, align 8
  %op_ = getelementptr inbounds %"class.re2::Regexp", ptr %this1, i32 0, i32 0
  %0 = load i8, ptr %op_, align 8
  %conv = zext i8 %0 to i32
  ret i32 %conv
}

; Function Attrs: mustprogress uwtable
define noundef ptr @_ZN3re26Regexp19RemoveLeadingRegexpEPS0_(ptr noundef %re) #1 align 2 personality ptr @__gxx_personality_v0 {
entry:
  %retval = alloca ptr, align 8
  %re.addr = alloca ptr, align 8
  %sub = alloca ptr, align 8
  %nre = alloca ptr, align 8
  %pf = alloca i32, align 4
  %exn.slot = alloca ptr, align 8
  %ehselector.slot = alloca i32, align 4
  store ptr %re, ptr %re.addr, align 8
  %0 = load ptr, ptr %re.addr, align 8
  %call = call noundef i32 @_ZN3re26Regexp2opEv(ptr noundef nonnull align 8 dereferenceable(40) %0)
  %cmp = icmp eq i32 %call, 2
  br i1 %cmp, label %if.then, label %if.end

if.then:                                          ; preds = %entry
  %1 = load ptr, ptr %re.addr, align 8
  store ptr %1, ptr %retval, align 8
  br label %return

if.end:                                           ; preds = %entry
  %2 = load ptr, ptr %re.addr, align 8
  %call1 = call noundef i32 @_ZN3re26Regexp2opEv(ptr noundef nonnull align 8 dereferenceable(40) %2)
  %cmp2 = icmp eq i32 %call1, 5
  br i1 %cmp2, label %land.lhs.true, label %if.end20

land.lhs.true:                                    ; preds = %if.end
  %3 = load ptr, ptr %re.addr, align 8
  %call3 = call noundef i32 @_ZN3re26Regexp4nsubEv(ptr noundef nonnull align 8 dereferenceable(40) %3)
  %cmp4 = icmp sge i32 %call3, 2
  br i1 %cmp4, label %if.then5, label %if.end20

if.then5:                                         ; preds = %land.lhs.true
  %4 = load ptr, ptr %re.addr, align 8
  %call6 = call noundef ptr @_ZN3re26Regexp3subEv(ptr noundef nonnull align 8 dereferenceable(40) %4)
  store ptr %call6, ptr %sub, align 8
  %5 = load ptr, ptr %sub, align 8
  %arrayidx = getelementptr inbounds ptr, ptr %5, i64 0
  %6 = load ptr, ptr %arrayidx, align 8
  %call7 = call noundef i32 @_ZN3re26Regexp2opEv(ptr noundef nonnull align 8 dereferenceable(40) %6)
  %cmp8 = icmp eq i32 %call7, 2
  br i1 %cmp8, label %if.then9, label %if.end10

if.then9:                                         ; preds = %if.then5
  %7 = load ptr, ptr %re.addr, align 8
  store ptr %7, ptr %retval, align 8
  br label %return

if.end10:                                         ; preds = %if.then5
  %8 = load ptr, ptr %sub, align 8
  %arrayidx11 = getelementptr inbounds ptr, ptr %8, i64 0
  %9 = load ptr, ptr %arrayidx11, align 8
  call void @_ZN3re26Regexp6DecrefEv(ptr noundef nonnull align 8 dereferenceable(40) %9)
  %10 = load ptr, ptr %sub, align 8
  %arrayidx12 = getelementptr inbounds ptr, ptr %10, i64 0
  store ptr null, ptr %arrayidx12, align 8
  %11 = load ptr, ptr %re.addr, align 8
  %call13 = call noundef i32 @_ZN3re26Regexp4nsubEv(ptr noundef nonnull align 8 dereferenceable(40) %11)
  %cmp14 = icmp eq i32 %call13, 2
  br i1 %cmp14, label %if.then15, label %if.end18

if.then15:                                        ; preds = %if.end10
  %12 = load ptr, ptr %sub, align 8
  %arrayidx16 = getelementptr inbounds ptr, ptr %12, i64 1
  %13 = load ptr, ptr %arrayidx16, align 8
  store ptr %13, ptr %nre, align 8
  %14 = load ptr, ptr %sub, align 8
  %arrayidx17 = getelementptr inbounds ptr, ptr %14, i64 1
  store ptr null, ptr %arrayidx17, align 8
  %15 = load ptr, ptr %re.addr, align 8
  call void @_ZN3re26Regexp6DecrefEv(ptr noundef nonnull align 8 dereferenceable(40) %15)
  %16 = load ptr, ptr %nre, align 8
  store ptr %16, ptr %retval, align 8
  br label %return

if.end18:                                         ; preds = %if.end10
  %17 = load ptr, ptr %re.addr, align 8
  %nsub_ = getelementptr inbounds %"class.re2::Regexp", ptr %17, i32 0, i32 4
  %18 = load i16, ptr %nsub_, align 2
  %dec = add i16 %18, -1
  store i16 %dec, ptr %nsub_, align 2
  %19 = load ptr, ptr %sub, align 8
  %20 = load ptr, ptr %sub, align 8
  %add.ptr = getelementptr inbounds ptr, ptr %20, i64 1
  %21 = load ptr, ptr %re.addr, align 8
  %nsub_19 = getelementptr inbounds %"class.re2::Regexp", ptr %21, i32 0, i32 4
  %22 = load i16, ptr %nsub_19, align 2
  %conv = zext i16 %22 to i64
  %mul = mul i64 %conv, 8
  call void @llvm.memmove.p0.p0.i64(ptr align 8 %19, ptr align 8 %add.ptr, i64 %mul, i1 false)
  %23 = load ptr, ptr %re.addr, align 8
  store ptr %23, ptr %retval, align 8
  br label %return

if.end20:                                         ; preds = %land.lhs.true, %if.end
  %24 = load ptr, ptr %re.addr, align 8
  %call21 = call noundef i32 @_ZN3re26Regexp11parse_flagsEv(ptr noundef nonnull align 8 dereferenceable(40) %24)
  store i32 %call21, ptr %pf, align 4
  %25 = load ptr, ptr %re.addr, align 8
  call void @_ZN3re26Regexp6DecrefEv(ptr noundef nonnull align 8 dereferenceable(40) %25)
  %call22 = call noalias noundef nonnull ptr @_Znwm(i64 noundef 40) #15
  %26 = load i32, ptr %pf, align 4
  invoke void @_ZN3re26RegexpC1ENS_8RegexpOpENS0_10ParseFlagsE(ptr noundef nonnull align 8 dereferenceable(40) %call22, i32 noundef 2, i32 noundef %26)
          to label %invoke.cont unwind label %lpad

invoke.cont:                                      ; preds = %if.end20
  store ptr %call22, ptr %retval, align 8
  br label %return

lpad:                                             ; preds = %if.end20
  %27 = landingpad { ptr, i32 }
          cleanup
  %28 = extractvalue { ptr, i32 } %27, 0
  store ptr %28, ptr %exn.slot, align 8
  %29 = extractvalue { ptr, i32 } %27, 1
  store i32 %29, ptr %ehselector.slot, align 4
  call void @_ZdlPv(ptr noundef %call22) #13
  br label %eh.resume

return:                                           ; preds = %invoke.cont, %if.end18, %if.then15, %if.then9, %if.then
  %30 = load ptr, ptr %retval, align 8
  ret ptr %30

eh.resume:                                        ; preds = %lpad
  %exn = load ptr, ptr %exn.slot, align 8
  %sel = load i32, ptr %ehselector.slot, align 4
  %lpad.val = insertvalue { ptr, i32 } poison, ptr %exn, 0
  %lpad.val23 = insertvalue { ptr, i32 } %lpad.val, i32 %sel, 1
  resume { ptr, i32 } %lpad.val23
}