; Function Attrs: mustprogress uwtable
define noundef ptr @_ZN3re26Regexp19RemoveLeadingRegexpEPS0_(ptr noundef %re) local_unnamed_addr #8 align 2 personality ptr @__gxx_personality_v0 {
entry:
  %0 = load i8, ptr %re, align 8
  switch i8 %0, label %if.end20 [
    i8 2, label %return
    i8 5, label %land.lhs.true
  ]

land.lhs.true:                                    ; preds = %entry
  %nsub_.i = getelementptr inbounds i8, ptr %re, i64 6
  %1 = load i16, ptr %nsub_.i, align 2
  %cmp4 = icmp ugt i16 %1, 1
  br i1 %cmp4, label %if.then5, label %if.end20

if.then5:                                         ; preds = %land.lhs.true
  %2 = getelementptr inbounds i8, ptr %re, i64 8
  %3 = load ptr, ptr %2, align 8
  %4 = load ptr, ptr %3, align 8
  %5 = load i8, ptr %4, align 8
  %cmp8 = icmp eq i8 %5, 2
  br i1 %cmp8, label %return, label %if.end10

if.end10:                                         ; preds = %if.then5
  tail call void @_ZN3re26Regexp6DecrefEv(ptr noundef nonnull align 8 dereferenceable(40) %4)
  store ptr null, ptr %3, align 8
  %6 = load i16, ptr %nsub_.i, align 2
  %cmp14 = icmp eq i16 %6, 2
  br i1 %cmp14, label %if.then15, label %if.end18

if.then15:                                        ; preds = %if.end10
  %arrayidx16 = getelementptr inbounds i8, ptr %3, i64 8
  %7 = load ptr, ptr %arrayidx16, align 8
  store ptr null, ptr %arrayidx16, align 8
  tail call void @_ZN3re26Regexp6DecrefEv(ptr noundef nonnull align 8 dereferenceable(40) %re)
  br label %return

if.end18:                                         ; preds = %if.end10
  %dec = add i16 %6, -1
  store i16 %dec, ptr %nsub_.i, align 2
  %add.ptr = getelementptr inbounds i8, ptr %3, i64 8
  %conv = zext i16 %dec to i64
  %mul = shl nuw nsw i64 %conv, 3
  tail call void @llvm.memmove.p0.p0.i64(ptr nonnull align 8 %3, ptr nonnull align 8 %add.ptr, i64 %mul, i1 false)
  br label %return

if.end20:                                         ; preds = %entry, %land.lhs.true
  %parse_flags_.i = getelementptr inbounds i8, ptr %re, i64 2
  %8 = load i16, ptr %parse_flags_.i, align 2
  %conv.i25 = zext i16 %8 to i32
  tail call void @_ZN3re26Regexp6DecrefEv(ptr noundef nonnull align 8 dereferenceable(40) %re)
  %call22 = tail call noalias noundef nonnull dereferenceable(40) ptr @_Znwm(i64 noundef 40) #28
  invoke void @_ZN3re26RegexpC1ENS_8RegexpOpENS0_10ParseFlagsE(ptr noundef nonnull align 8 dereferenceable(40) %call22, i32 noundef 2, i32 noundef %conv.i25)
          to label %return unwind label %lpad

lpad:                                             ; preds = %if.end20
  %9 = landingpad { ptr, i32 }
          cleanup
  tail call void @_ZdlPv(ptr noundef nonnull %call22) #26
  resume { ptr, i32 } %9

return:                                           ; preds = %entry, %if.end20, %if.then5, %if.end18, %if.then15
  %retval.0 = phi ptr [ %7, %if.then15 ], [ %re, %if.end18 ], [ %re, %entry ], [ %re, %if.then5 ], [ %call22, %if.end20 ]
  ret ptr %retval.0
}